; Function Attrs: nounwind uwtable
define ptr @duckdb_je_edata_cache_get(ptr noundef %0, ptr noundef %1) local_unnamed_addr #0 {
  %3 = getelementptr inbounds nuw i8, ptr %1, i64 96
  %4 = tail call i32 @pthread_mutex_trylock(ptr noundef nonnull %3) #4
  %.not.i = icmp eq i32 %4, 0
  br i1 %.not.i, label %8, label %5

5:                                                ; preds = %2
  %6 = getelementptr inbounds nuw i8, ptr %1, i64 24
  tail call void @duckdb_je_malloc_mutex_lock_slow(ptr noundef nonnull %6) #4
  %7 = getelementptr inbounds nuw i8, ptr %1, i64 88
  store atomic i8 1, ptr %7 monotonic, align 1
  br label %8

8:                                                ; preds = %5, %2
  %9 = getelementptr inbounds nuw i8, ptr %1, i64 80
  %10 = load i64, ptr %9, align 8, !tbaa !14
  %11 = add i64 %10, 1
  store i64 %11, ptr %9, align 8, !tbaa !14
  %12 = getelementptr inbounds nuw i8, ptr %1, i64 72
  %13 = load ptr, ptr %12, align 8, !tbaa !19
  %.not.i.i = icmp eq ptr %13, %0
  br i1 %.not.i.i, label %malloc_mutex_lock.exit, label %14

14:                                               ; preds = %8
  store ptr %0, ptr %12, align 8, !tbaa !19
  %15 = getelementptr inbounds nuw i8, ptr %1, i64 64
  %16 = load i64, ptr %15, align 8, !tbaa !20
  %17 = add i64 %16, 1
  store i64 %17, ptr %15, align 8, !tbaa !20
  br label %malloc_mutex_lock.exit

malloc_mutex_lock.exit:                           ; preds = %8, %14
  %18 = tail call ptr @duckdb_je_edata_avail_first(ptr noundef nonnull %1) #4
  %19 = icmp eq ptr %18, null
  br i1 %19, label %20, label %26

20:                                               ; preds = %malloc_mutex_lock.exit
  %21 = getelementptr inbounds nuw i8, ptr %1, i64 88
  store atomic i8 0, ptr %21 monotonic, align 1
  %22 = tail call i32 @pthread_mutex_unlock(ptr noundef nonnull %3) #4
  %23 = getelementptr inbounds nuw i8, ptr %1, i64 136
  %24 = load ptr, ptr %23, align 8, !tbaa !3
  %25 = tail call ptr @duckdb_je_base_alloc_edata(ptr noundef %0, ptr noundef %24) #4
  br label %32

26:                                               ; preds = %malloc_mutex_lock.exit
  tail call void @duckdb_je_edata_avail_remove(ptr noundef nonnull %1, ptr noundef nonnull %18) #4
  %27 = getelementptr inbounds nuw i8, ptr %1, i64 16
  %28 = load atomic i64, ptr %27 monotonic, align 8
  %29 = add i64 %28, -1
  store atomic i64 %29, ptr %27 monotonic, align 8
  %30 = getelementptr inbounds nuw i8, ptr %1, i64 88
  store atomic i8 0, ptr %30 monotonic, align 1
  %31 = tail call i32 @pthread_mutex_unlock(ptr noundef nonnull %3) #4
  br label %32

32:                                               ; preds = %26, %20
  %.0 = phi ptr [ %25, %20 ], [ %18, %26 ]
  ret ptr %.0
}